target datalayout = "e-m:e-p270:32:32-p271:32:32-p272:64:64-i64:64-i128:128-f80:128-n8:16:32:64-S128"
target triple = "x86_64-pc-linux-gnu"

%struct.hb_font_funcs_t = type { %struct.hb_object_header_t, ptr, ptr, %"union.hb_font_funcs_t::get_t" }
%struct.hb_object_header_t = type { %struct.hb_reference_count_t, %struct.hb_atomic_int_t, %struct.hb_atomic_ptr_t }
%struct.hb_reference_count_t = type { %struct.hb_atomic_int_t }
%struct.hb_atomic_int_t = type { i32 }
%struct.hb_atomic_ptr_t = type { ptr }
%"union.hb_font_funcs_t::get_t" = type { %"struct.hb_font_funcs_t::get_t::get_funcs_t" }
%"struct.hb_font_funcs_t::get_t::get_funcs_t" = type { ptr, ptr, ptr, ptr, ptr, ptr, ptr, ptr, ptr, ptr, ptr, ptr, ptr, ptr, ptr, ptr, ptr, ptr, ptr }
%struct.hb_atomic_ptr_t.1 = type { ptr }
%struct.hb_atomic_ptr_t.5 = type { ptr }
%struct.hb_font_t = type { %struct.hb_object_header_t, i32, i32, ptr, ptr, i32, i32, float, float, i8, i32, i32, float, float, float, float, i64, i64, i32, i32, float, i32, i32, ptr, ptr, ptr, ptr, ptr, %struct.hb_shaper_object_dataset_t }
%struct.hb_shaper_object_dataset_t = type { ptr, %struct.hb_shaper_lazy_loader_t, %struct.hb_shaper_lazy_loader_t.2 }
%struct.hb_shaper_lazy_loader_t = type { %struct.hb_lazy_loader_t }
%struct.hb_lazy_loader_t = type { %struct.hb_atomic_ptr_t.1 }
%struct.hb_shaper_lazy_loader_t.2 = type { %struct.hb_lazy_loader_t.3 }
%struct.hb_lazy_loader_t.3 = type { %struct.hb_atomic_ptr_t.5 }
%struct.anon.0 = type { ptr, ptr, ptr, ptr, ptr, ptr, ptr, ptr, ptr, ptr, ptr, ptr, ptr, ptr, ptr, ptr, ptr, ptr, ptr }

; Function Attrs: mustprogress uwtable
define linkonce_odr hidden noundef i32 @_ZN9hb_font_t19get_glyph_h_advanceEj(ptr noundef nonnull align 8 dereferenceable(192) %0, i32 noundef %1) #0 comdat align 2 {
  %3 = alloca ptr, align 8
  %4 = alloca i32, align 4
  store ptr %0, ptr %3, align 8
  store i32 %1, ptr %4, align 4
  %5 = load ptr, ptr %3, align 8
  %6 = getelementptr inbounds %struct.hb_font_t, ptr %5, i32 0, i32 25
  %7 = load ptr, ptr %6, align 8
  %8 = getelementptr inbounds %struct.hb_font_funcs_t, ptr %7, i32 0, i32 3
  %9 = getelementptr inbounds %"struct.hb_font_funcs_t::get_t::get_funcs_t", ptr %8, i32 0, i32 5
  %10 = load ptr, ptr %9, align 8
  %11 = getelementptr inbounds %struct.hb_font_t, ptr %5, i32 0, i32 26
  %12 = load ptr, ptr %11, align 8
  %13 = load i32, ptr %4, align 4
  %14 = getelementptr inbounds %struct.hb_font_t, ptr %5, i32 0, i32 25
  %15 = load ptr, ptr %14, align 8
  %16 = getelementptr inbounds %struct.hb_font_funcs_t, ptr %15, i32 0, i32 1
  %17 = load ptr, ptr %16, align 8
  %18 = icmp ne ptr %17, null
  br i1 %18, label %20, label %19

19:                                               ; preds = %2
  br label %27

20:                                               ; preds = %2
  %21 = getelementptr inbounds %struct.hb_font_t, ptr %5, i32 0, i32 25
  %22 = load ptr, ptr %21, align 8
  %23 = getelementptr inbounds %struct.hb_font_funcs_t, ptr %22, i32 0, i32 1
  %24 = load ptr, ptr %23, align 8
  %25 = getelementptr inbounds %struct.anon.0, ptr %24, i32 0, i32 5
  %26 = load ptr, ptr %25, align 8
  br label %27

27:                                               ; preds = %20, %19
  %28 = phi ptr [ null, %19 ], [ %26, %20 ]
  %29 = call noundef i32 %10(ptr noundef %5, ptr noundef %12, i32 noundef %13, ptr noundef %28)
  ret i32 %29
}

; Function Attrs: mustprogress uwtable
define hidden i32 @hb_font_get_glyph_h_advance(ptr noundef %0, i32 noundef %1) #0 {
  %3 = alloca ptr, align 8
  %4 = alloca i32, align 4
  store ptr %0, ptr %3, align 8
  store i32 %1, ptr %4, align 4
  %5 = load ptr, ptr %3, align 8
  %6 = load i32, ptr %4, align 4
  %7 = call noundef i32 @_ZN9hb_font_t19get_glyph_h_advanceEj(ptr noundef nonnull align 8 dereferenceable(192) %5, i32 noundef %6)
  ret i32 %7
}